target datalayout = "e-m:e-p270:32:32-p271:32:32-p272:64:64-i64:64-i128:128-f80:128-n8:16:32:64-S128"
target triple = "x86_64-pc-linux-gnu"

%struct.Vec_Int_t_ = type { i32, i32, ptr }
%struct.Jf_Man_t_ = type { ptr, ptr, ptr, ptr, ptr, %struct.Vec_Int_t_, %struct.Vec_Int_t_, %struct.Vec_Int_t_, %struct.Vec_Flt_t_, %struct.Vec_Flt_t_, %struct.Vec_Set_t_, ptr, ptr, i64, [4 x i64], i32 }
%struct.Vec_Flt_t_ = type { i32, i32, ptr }
%struct.Vec_Set_t_ = type { i32, i32, i32, i32, i32, i32, ptr }
%struct.Jf_Par_t_ = type { i32, i32, i32, i32, i32, i32, i32, i32, i32, i32, i32, i32, i32, i32, i32, i32, i32, i32, i32, i32, i32, i32, i32, i32, i32, i32, i32, i32, i32, i32, i32, i32, i32, i32, i32, i32, i32, i32, i32, i32, i64, i64, i64, i64, i64, i64, i64, i64, i32, float, float, float, float, ptr, ptr }
%struct.timespec = type { i64, i64 }

@.str.10 = private unnamed_addr constant [5 x i8] c"Time\00", align 1
@stdout = external global ptr, align 8
@.str.24 = private unnamed_addr constant [7 x i8] c"%s :  \00", align 1
@.str.25 = private unnamed_addr constant [15 x i8] c"Level =%6lu   \00", align 1
@.str.26 = private unnamed_addr constant [14 x i8] c"Area =%9lu   \00", align 1
@.str.27 = private unnamed_addr constant [14 x i8] c"Edge =%9lu   \00", align 1
@.str.28 = private unnamed_addr constant [13 x i8] c"Cnf =%9lu   \00", align 1
@.str.36 = private unnamed_addr constant [5 x i8] c"%s =\00", align 1
@.str.37 = private unnamed_addr constant [11 x i8] c"%9.2f sec\0A\00", align 1

; Function Attrs: inlinehint nounwind uwtable
define internal void @Abc_PrintTime(i32 noundef %0, ptr noundef %1, i64 noundef %2) #1 {
  %4 = alloca i32, align 4
  %5 = alloca ptr, align 8
  %6 = alloca i64, align 8
  store i32 %0, ptr %4, align 4, !tbaa !7
  store ptr %1, ptr %5, align 8, !tbaa !130
  store i64 %2, ptr %6, align 8, !tbaa !3
  %7 = load ptr, ptr %5, align 8, !tbaa !130
  call void (i32, ptr, ...) @Abc_Print(i32 noundef 1, ptr noundef @.str.36, ptr noundef %7)
  %8 = load i64, ptr %6, align 8, !tbaa !3
  %9 = sitofp i64 %8 to double
  %10 = fmul double 1.000000e+00, %9
  %11 = fdiv double %10, 1.000000e+06
  call void (i32, ptr, ...) @Abc_Print(i32 noundef 1, ptr noundef @.str.37, double noundef %11)
  ret void
}

; Function Attrs: inlinehint nounwind uwtable
define internal i64 @Abc_Clock() #1 {
  %1 = alloca i64, align 8
  %2 = alloca %struct.timespec, align 8
  %3 = alloca i32, align 4
  %4 = alloca i64, align 8
  call void @llvm.lifetime.start.p0(i64 16, ptr %2) #14
  %5 = call i32 @clock_gettime(i32 noundef 1, ptr noundef %2) #14
  %6 = icmp slt i32 %5, 0
  br i1 %6, label %7, label %8

7:                                                ; preds = %0
  store i64 -1, ptr %1, align 8
  store i32 1, ptr %3, align 4
  br label %19

8:                                                ; preds = %0
  call void @llvm.lifetime.start.p0(i64 8, ptr %4) #14
  %9 = getelementptr inbounds nuw %struct.timespec, ptr %2, i32 0, i32 0
  %10 = load i64, ptr %9, align 8, !tbaa !245
  %11 = mul nsw i64 %10, 1000000
  store i64 %11, ptr %4, align 8, !tbaa !3
  %12 = getelementptr inbounds nuw %struct.timespec, ptr %2, i32 0, i32 1
  %13 = load i64, ptr %12, align 8, !tbaa !247
  %14 = mul nsw i64 %13, 1000000
  %15 = sdiv i64 %14, 1000000000
  %16 = load i64, ptr %4, align 8, !tbaa !3
  %17 = add nsw i64 %16, %15
  store i64 %17, ptr %4, align 8, !tbaa !3
  %18 = load i64, ptr %4, align 8, !tbaa !3
  store i64 %18, ptr %1, align 8
  store i32 1, ptr %3, align 4
  call void @llvm.lifetime.end.p0(i64 8, ptr %4) #14
  br label %19

19:                                               ; preds = %8, %7
  call void @llvm.lifetime.end.p0(i64 16, ptr %2) #14
  %20 = load i64, ptr %1, align 8
  ret i64 %20
}

; Function Attrs: nounwind uwtable
define void @Jf_ManPrintStats(ptr noundef %0, ptr noundef %1) #0 {
  %3 = alloca ptr, align 8
  %4 = alloca ptr, align 8
  store ptr %0, ptr %3, align 8, !tbaa !64
  store ptr %1, ptr %4, align 8, !tbaa !130
  %5 = load ptr, ptr %3, align 8, !tbaa !64
  %6 = getelementptr inbounds nuw %struct.Jf_Man_t_, ptr %5, i32 0, i32 1
  %7 = load ptr, ptr %6, align 8, !tbaa !78
  %8 = getelementptr inbounds nuw %struct.Jf_Par_t_, ptr %7, i32 0, i32 34
  %9 = load i32, ptr %8, align 8, !tbaa !118
  %10 = icmp ne i32 %9, 0
  br i1 %10, label %12, label %11

11:                                               ; preds = %2
  br label %54

12:                                               ; preds = %2
  %13 = load ptr, ptr %4, align 8, !tbaa !130
  %14 = call i32 (ptr, ...) @printf(ptr noundef @.str.24, ptr noundef %13)
  %15 = load ptr, ptr %3, align 8, !tbaa !64
  %16 = getelementptr inbounds nuw %struct.Jf_Man_t_, ptr %15, i32 0, i32 1
  %17 = load ptr, ptr %16, align 8, !tbaa !78
  %18 = getelementptr inbounds nuw %struct.Jf_Par_t_, ptr %17, i32 0, i32 40
  %19 = load i64, ptr %18, align 8, !tbaa !206
  %20 = call i32 (ptr, ...) @printf(ptr noundef @.str.25, i64 noundef %19)
  %21 = load ptr, ptr %3, align 8, !tbaa !64
  %22 = getelementptr inbounds nuw %struct.Jf_Man_t_, ptr %21, i32 0, i32 1
  %23 = load ptr, ptr %22, align 8, !tbaa !78
  %24 = getelementptr inbounds nuw %struct.Jf_Par_t_, ptr %23, i32 0, i32 41
  %25 = load i64, ptr %24, align 8, !tbaa !201
  %26 = call i32 (ptr, ...) @printf(ptr noundef @.str.26, i64 noundef %25)
  %27 = load ptr, ptr %3, align 8, !tbaa !64
  %28 = getelementptr inbounds nuw %struct.Jf_Man_t_, ptr %27, i32 0, i32 1
  %29 = load ptr, ptr %28, align 8, !tbaa !78
  %30 = getelementptr inbounds nuw %struct.Jf_Par_t_, ptr %29, i32 0, i32 42
  %31 = load i64, ptr %30, align 8, !tbaa !200
  %32 = call i32 (ptr, ...) @printf(ptr noundef @.str.27, i64 noundef %31)
  %33 = load ptr, ptr %3, align 8, !tbaa !64
  %34 = getelementptr inbounds nuw %struct.Jf_Man_t_, ptr %33, i32 0, i32 1
  %35 = load ptr, ptr %34, align 8, !tbaa !78
  %36 = getelementptr inbounds nuw %struct.Jf_Par_t_, ptr %35, i32 0, i32 24
  %37 = load i32, ptr %36, align 8, !tbaa !87
  %38 = icmp ne i32 %37, 0
  br i1 %38, label %39, label %46

39:                                               ; preds = %12
  %40 = load ptr, ptr %3, align 8, !tbaa !64
  %41 = getelementptr inbounds nuw %struct.Jf_Man_t_, ptr %40, i32 0, i32 1
  %42 = load ptr, ptr %41, align 8, !tbaa !78
  %43 = getelementptr inbounds nuw %struct.Jf_Par_t_, ptr %42, i32 0, i32 43
  %44 = load i64, ptr %43, align 8, !tbaa !202
  %45 = call i32 (ptr, ...) @printf(ptr noundef @.str.28, i64 noundef %44)
  br label %46

46:                                               ; preds = %39, %12
  %47 = call i64 @Abc_Clock()
  %48 = load ptr, ptr %3, align 8, !tbaa !64
  %49 = getelementptr inbounds nuw %struct.Jf_Man_t_, ptr %48, i32 0, i32 13
  %50 = load i64, ptr %49, align 8, !tbaa !101
  %51 = sub nsw i64 %47, %50
  call void @Abc_PrintTime(i32 noundef 1, ptr noundef @.str.10, i64 noundef %51)
  %52 = load ptr, ptr @stdout, align 8, !tbaa !192
  %53 = call i32 @fflush(ptr noundef %52)
  br label %54

54:                                               ; preds = %46, %11
  ret void
}