; Function Attrs: nounwind uwtable
define void @Jf_ManPrintStats(ptr noundef readonly captures(none) %0, ptr noundef %1) local_unnamed_addr #0 {
  %3 = alloca %struct.timespec, align 8
  %4 = getelementptr inbounds nuw i8, ptr %0, i64 8
  %5 = load ptr, ptr %4, align 8, !tbaa !72
  %6 = getelementptr inbounds nuw i8, ptr %5, i64 136
  %7 = load i32, ptr %6, align 8, !tbaa !116
  %.not = icmp eq i32 %7, 0
  br i1 %.not, label %46, label %8

8:                                                ; preds = %2
  %9 = tail call i32 (ptr, ...) @printf(ptr noundef nonnull dereferenceable(1) @.str.24, ptr noundef %1)
  %10 = load ptr, ptr %4, align 8, !tbaa !72
  %11 = getelementptr inbounds nuw i8, ptr %10, i64 160
  %12 = load i64, ptr %11, align 8, !tbaa !202
  %13 = tail call i32 (ptr, ...) @printf(ptr noundef nonnull dereferenceable(1) @.str.25, i64 noundef %12)
  %14 = load ptr, ptr %4, align 8, !tbaa !72
  %15 = getelementptr inbounds nuw i8, ptr %14, i64 168
  %16 = load i64, ptr %15, align 8, !tbaa !198
  %17 = tail call i32 (ptr, ...) @printf(ptr noundef nonnull dereferenceable(1) @.str.26, i64 noundef %16)
  %18 = load ptr, ptr %4, align 8, !tbaa !72
  %19 = getelementptr inbounds nuw i8, ptr %18, i64 176
  %20 = load i64, ptr %19, align 8, !tbaa !197
  %21 = tail call i32 (ptr, ...) @printf(ptr noundef nonnull dereferenceable(1) @.str.27, i64 noundef %20)
  %22 = load ptr, ptr %4, align 8, !tbaa !72
  %23 = getelementptr inbounds nuw i8, ptr %22, i64 96
  %24 = load i32, ptr %23, align 8, !tbaa !85
  %.not8 = icmp eq i32 %24, 0
  br i1 %.not8, label %29, label %25

25:                                               ; preds = %8
  %26 = getelementptr inbounds nuw i8, ptr %22, i64 184
  %27 = load i64, ptr %26, align 8, !tbaa !196
  %28 = tail call i32 (ptr, ...) @printf(ptr noundef nonnull dereferenceable(1) @.str.28, i64 noundef %27)
  br label %29

29:                                               ; preds = %25, %8
  call void @llvm.lifetime.start.p0(i64 16, ptr nonnull %3) #30
  %30 = call i32 @clock_gettime(i32 noundef 1, ptr noundef nonnull %3) #30
  %31 = icmp slt i32 %30, 0
  br i1 %31, label %Abc_Clock.exit, label %32

32:                                               ; preds = %29
  %33 = load i64, ptr %3, align 8, !tbaa !112
  %34 = mul nsw i64 %33, 1000000
  %35 = getelementptr inbounds nuw i8, ptr %3, i64 8
  %36 = load i64, ptr %35, align 8, !tbaa !114
  %37 = sdiv i64 %36, 1000
  %38 = add nsw i64 %37, %34
  br label %Abc_Clock.exit

Abc_Clock.exit:                                   ; preds = %29, %32
  %.0.i = phi i64 [ %38, %32 ], [ -1, %29 ]
  call void @llvm.lifetime.end.p0(i64 16, ptr nonnull %3) #30
  %39 = getelementptr inbounds nuw i8, ptr %0, i64 168
  %40 = load i64, ptr %39, align 8, !tbaa !115
  %41 = sub nsw i64 %.0.i, %40
  call void (i32, ptr, ...) @Abc_Print(i32 poison, ptr noundef nonnull @.str.36, ptr noundef nonnull @.str.10)
  %42 = sitofp i64 %41 to double
  %43 = fdiv double %42, 1.000000e+06
  call void (i32, ptr, ...) @Abc_Print(i32 poison, ptr noundef nonnull @.str.37, double noundef %43)
  %44 = load ptr, ptr @stdout, align 8, !tbaa !190
  %45 = call i32 @fflush(ptr noundef %44)
  br label %46

46:                                               ; preds = %2, %Abc_Clock.exit
  ret void
}